(dp0
Vengine
p1
S'pdflatex'
p2
sVpackages
p3
c__builtin__
set
p4
((lp5
Vamsmath
p6
aVgraphicx
p7
aVgeometry
p8
aVamsfonts
p9
aVinputenc
p10
aVwrapfig
p11
aVcolor
p12
atp13
Rp14
sVfiles_with_guttermarks
p15
g4
((lp16
S'eurocg18-short-abstract.tex'
p17
atp18
Rp19
sVsynctex
p20
I01
s.